target datalayout = "e-m:e-p270:32:32-p271:32:32-p272:64:64-i64:64-i128:128-f80:128-n8:16:32:64-S128"
target triple = "x86_64-pc-linux-gnu"

%struct._zend_refcounted_h = type { i32, %union.anon }
%union.anon = type { i32 }
%struct.smart_str = type { ptr, i64 }
%struct._zend_string = type { %struct._zend_refcounted_h, i64, i64, [1 x i8] }

@zend_write = global ptr null, align 8

; Function Attrs: nounwind uwtable
define void @zend_print_flat_zval_r(ptr noundef %0) #0 {
  %2 = alloca ptr, align 8
  %3 = alloca i32, align 4
  %4 = alloca ptr, align 8
  %5 = alloca i8, align 1
  %6 = alloca ptr, align 8
  %7 = alloca i8, align 1
  %8 = alloca ptr, align 8
  %9 = alloca ptr, align 8
  %10 = alloca ptr, align 8
  %11 = alloca %struct.smart_str, align 8
  store ptr %0, ptr %10, align 8
  call void @llvm.memset.p0.i64(ptr align 8 %11, i8 0, i64 16, i1 false)
  %12 = load ptr, ptr %10, align 8
  call void @zend_print_flat_zval_r_to_buf(ptr noundef %11, ptr noundef %12)
  store ptr %11, ptr %9, align 8
  %13 = load ptr, ptr %9, align 8
  %14 = load ptr, ptr %13, align 8
  %15 = icmp ne ptr %14, null
  br i1 %15, label %16, label %25

16:                                               ; preds = %1
  %17 = load ptr, ptr %9, align 8
  %18 = load ptr, ptr %17, align 8
  %19 = getelementptr inbounds %struct._zend_string, ptr %18, i32 0, i32 3
  %20 = load ptr, ptr %9, align 8
  %21 = load ptr, ptr %20, align 8
  %22 = getelementptr inbounds %struct._zend_string, ptr %21, i32 0, i32 2
  %23 = load i64, ptr %22, align 8
  %24 = getelementptr inbounds [1 x i8], ptr %19, i64 0, i64 %23
  store i8 0, ptr %24, align 1
  br label %25

25:                                               ; preds = %16, %1
  %26 = load ptr, ptr @zend_write, align 8
  %27 = getelementptr inbounds %struct.smart_str, ptr %11, i32 0, i32 0
  %28 = load ptr, ptr %27, align 8
  %29 = getelementptr inbounds %struct._zend_string, ptr %28, i32 0, i32 3
  %30 = getelementptr inbounds [1 x i8], ptr %29, i64 0, i64 0
  %31 = getelementptr inbounds %struct.smart_str, ptr %11, i32 0, i32 0
  %32 = load ptr, ptr %31, align 8
  %33 = getelementptr inbounds %struct._zend_string, ptr %32, i32 0, i32 2
  %34 = load i64, ptr %33, align 8
  %35 = call i64 %26(ptr noundef %30, i64 noundef %34)
  store ptr %11, ptr %8, align 8
  %36 = load ptr, ptr %8, align 8
  store ptr %36, ptr %6, align 8
  store i8 0, ptr %7, align 1
  %37 = load ptr, ptr %6, align 8
  %38 = load ptr, ptr %37, align 8
  %39 = icmp ne ptr %38, null
  br i1 %39, label %40, label %73

40:                                               ; preds = %25
  %41 = load ptr, ptr %6, align 8
  %42 = load ptr, ptr %41, align 8
  %43 = load i8, ptr %7, align 1
  %44 = trunc i8 %43 to i1
  store ptr %42, ptr %4, align 8
  %45 = zext i1 %44 to i8
  store i8 %45, ptr %5, align 1
  %46 = load ptr, ptr %4, align 8
  %47 = getelementptr inbounds %struct._zend_refcounted_h, ptr %46, i32 0, i32 1
  %48 = load i32, ptr %47, align 4
  store i32 %48, ptr %3, align 4
  %49 = load i32, ptr %3, align 4
  %50 = and i32 %49, 1008
  %51 = and i32 %50, 64
  %52 = icmp ne i32 %51, 0
  br i1 %52, label %71, label %53

53:                                               ; preds = %40
  %54 = load ptr, ptr %4, align 8
  store ptr %54, ptr %2, align 8
  %55 = load ptr, ptr %2, align 8
  %56 = load i32, ptr %55, align 4
  %57 = icmp ugt i32 %56, 0
  call void @llvm.assume(i1 %57)
  %58 = load ptr, ptr %2, align 8
  %59 = load i32, ptr %58, align 4
  %60 = add i32 %59, -1
  store i32 %60, ptr %58, align 4
  %61 = icmp eq i32 %60, 0
  br i1 %61, label %62, label %70

62:                                               ; preds = %53
  %63 = load i8, ptr %5, align 1
  %64 = trunc i8 %63 to i1
  br i1 %64, label %65, label %67

65:                                               ; preds = %62
  %66 = load ptr, ptr %4, align 8
  call void @free(ptr noundef %66) #18
  br label %69

67:                                               ; preds = %62
  %68 = load ptr, ptr %4, align 8
  call void @_efree(ptr noundef %68) #18
  br label %69

69:                                               ; preds = %67, %65
  br label %70

70:                                               ; preds = %69, %53
  br label %71

71:                                               ; preds = %70, %40
  %72 = load ptr, ptr %6, align 8
  store ptr null, ptr %72, align 8
  br label %73

73:                                               ; preds = %71, %25
  %74 = load ptr, ptr %6, align 8
  %75 = getelementptr inbounds %struct.smart_str, ptr %74, i32 0, i32 1
  store i64 0, ptr %75, align 8
  ret void
}